Certificate:
    Data:
        Version: 3 (0x2)
        Serial Number: 3 (0x3)
    Signature Algorithm: sha256WithRSAEncryption
        Issuer: C=CN, ST=Zhejiang, L=Hangzhou, O=Hangzhou Shuchuang Technology Ltd, OU=IT_Section, CN=www.shuchuangtech.com/emailAddress=huang_jian@shuchuangtech.com
        Validity
            Not Before: Dec 11 13:36:58 2015 GMT
            Not After : Dec 10 13:36:58 2016 GMT
        Subject: C=CN, ST=Zhejiang, O=Hangzhou Shuchuang Technology Ltd, OU=IT_Section, CN=192.168.1.4/emailAddress=435360@qq.com
        Subject Public Key Info:
            Public Key Algorithm: rsaEncryption
                Public-Key: (2048 bit)
                Modulus:
                    00:d8:bc:11:a0:55:56:fe:c8:0a:05:c3:7a:61:72:
                    67:7f:2f:dc:22:ae:38:b7:1f:5c:31:40:ce:96:63:
                    63:c5:f9:37:c8:6f:e2:1a:c7:54:75:16:57:87:06:
                    21:e7:b5:74:c7:26:b9:a8:81:79:b6:72:71:f3:87:
                    d4:3d:34:99:67:5c:e5:2e:b4:c4:2b:4c:25:7e:b6:
                    e9:75:74:23:dd:6e:f7:76:8d:1f:47:a4:af:10:b3:
                    8e:a6:98:69:31:06:2b:6f:c8:e7:09:87:ff:4a:3b:
                    b0:fa:75:48:2d:c2:25:75:ba:bc:10:d5:5c:7f:14:
                    7f:36:73:1c:e3:e6:1d:2b:fa:c7:53:1e:d5:0b:74:
                    78:e2:f6:0f:8f:5f:63:fd:04:0e:c4:95:d9:bc:59:
                    77:9b:c6:69:04:e7:1b:04:0e:c0:24:60:84:e9:d4:
                    9c:cb:e9:4a:ad:9f:60:9f:bc:34:b2:fa:e2:d8:af:
                    52:1c:54:39:c2:a5:36:51:63:55:44:95:e8:c8:13:
                    91:2a:df:72:e5:1e:bb:90:b6:f2:f9:97:88:74:fd:
                    72:b7:69:31:ca:0b:9a:7c:21:45:50:12:87:b2:67:
                    27:c9:c9:86:aa:7e:b7:d6:58:59:e2:71:4d:ab:fd:
                    0f:be:8b:40:4a:af:37:ed:8a:bd:ba:24:8e:30:39:
                    f0:69
                Exponent: 65537 (0x10001)
        X509v3 extensions:
            X509v3 Basic Constraints: 
                CA:FALSE
            Netscape Comment: 
                OpenSSL Generated Certificate
            X509v3 Subject Key Identifier: 
                06:A7:7F:36:25:96:B1:B8:5A:16:22:DD:77:1E:1C:BB:D4:06:B2:4A
            X509v3 Authority Key Identifier: 
                keyid:AA:15:23:64:F6:B1:6A:D0:3C:07:AF:D0:F7:69:C9:F9:EF:CF:00:C0

    Signature Algorithm: sha256WithRSAEncryption
         12:f8:cd:07:7b:86:45:54:cd:19:43:34:43:4e:1e:68:54:67:
         26:1c:7b:75:f5:ca:54:bc:fc:c2:89:96:53:b5:03:95:51:cb:
         e6:3f:32:f1:54:cd:13:94:a3:bf:4c:ec:9c:9c:67:c6:c0:21:
         68:fc:90:0e:dc:bd:10:a2:85:d9:be:1f:2c:4f:a8:02:73:0c:
         8f:3d:82:cf:d2:b0:4c:3e:b2:4c:9b:d4:bc:f9:9a:6d:56:b1:
         a3:82:88:5e:21:fa:a6:b3:3d:54:c3:db:1a:0a:c3:0e:bf:31:
         68:4c:97:4a:16:d5:a6:c6:96:b8:60:d5:33:27:7f:d5:4f:65:
         a5:9b:00:30:c2:a4:25:c9:02:8d:43:55:26:8f:0f:bb:b4:66:
         99:86:e0:d3:83:4b:d4:71:1e:d5:11:bd:2d:d3:58:16:85:19:
         d1:5e:09:f4:33:ca:23:05:63:2c:5c:a7:a9:37:ec:58:ee:b3:
         40:a3:dc:97:03:06:59:5f:84:22:de:17:28:cb:13:4b:ed:e1:
         37:9a:8b:8c:bf:a1:b1:99:1b:bc:4f:8e:cb:8a:df:fe:5e:95:
         d7:0b:15:5a:f3:2a:27:37:8f:1a:f4:9d:91:de:16:95:2e:d6:
         82:1a:b9:95:8b:12:0e:fd:fd:dc:2e:16:f6:9e:b8:e1:04:6f:
         cc:86:96:03
-----BEGIN CERTIFICATE-----
MIIETjCCAzagAwIBAgIBAzANBgkqhkiG9w0BAQsFADCBwTELMAkGA1UEBhMCQ04x
ETAPBgNVBAgMCFpoZWppYW5nMREwDwYDVQQHDAhIYW5nemhvdTEqMCgGA1UECgwh
SGFuZ3pob3UgU2h1Y2h1YW5nIFRlY2hub2xvZ3kgTHRkMRMwEQYDVQQLDApJVF9T
ZWN0aW9uMR4wHAYDVQQDDBV3d3cuc2h1Y2h1YW5ndGVjaC5jb20xKzApBgkqhkiG
9w0BCQEWHGh1YW5nX2ppYW5Ac2h1Y2h1YW5ndGVjaC5jb20wHhcNMTUxMjExMTMz
NjU4WhcNMTYxMjEwMTMzNjU4WjCBlTELMAkGA1UEBhMCQ04xETAPBgNVBAgMCFpo
ZWppYW5nMSowKAYDVQQKDCFIYW5nemhvdSBTaHVjaHVhbmcgVGVjaG5vbG9neSBM
dGQxEzARBgNVBAsMCklUX1NlY3Rpb24xFDASBgNVBAMMCzE5Mi4xNjguMS40MRww
GgYJKoZIhvcNAQkBFg00MzUzNjBAcXEuY29tMIIBIjANBgkqhkiG9w0BAQEFAAOC
AQ8AMIIBCgKCAQEA2LwRoFVW/sgKBcN6YXJnfy/cIq44tx9cMUDOlmNjxfk3yG/i
GsdUdRZXhwYh57V0xya5qIF5tnJx84fUPTSZZ1zlLrTEK0wlfrbpdXQj3W73do0f
R6SvELOOpphpMQYrb8jnCYf/Sjuw+nVILcIldbq8ENVcfxR/NnMc4+YdK/rHUx7V
C3R44vYPj19j/QQOxJXZvFl3m8ZpBOcbBA7AJGCE6dScy+lKrZ9gn7w0svri2K9S
HFQ5wqU2UWNVRJXoyBORKt9y5R67kLby+ZeIdP1yt2kxyguafCFFUBKHsmcnycmG
qn631lhZ4nFNq/0PvotASq837Yq9uiSOMDnwaQIDAQABo3sweTAJBgNVHRMEAjAA
MCwGCWCGSAGG+EIBDQQfFh1PcGVuU1NMIEdlbmVyYXRlZCBDZXJ0aWZpY2F0ZTAd
BgNVHQ4EFgQUBqd/NiWWsbhaFiLddx4cu9QGskowHwYDVR0jBBgwFoAUqhUjZPax
atA8B6/Q92nJ+e/PAMAwDQYJKoZIhvcNAQELBQADggEBABL4zQd7hkVUzRlDNENO
HmhUZyYce3X1ylS8/MKJllO1A5VRy+Y/MvFUzROUo79M7JycZ8bAIWj8kA7cvRCi
hdm+HyxPqAJzDI89gs/SsEw+skyb1Lz5mm1WsaOCiF4h+qazPVTD2xoKww6/MWhM
l0oW1abGlrhg1TMnf9VPZaWbADDCpCXJAo1DVSaPD7u0ZpmG4NODS9RxHtURvS3T
WBaFGdFeCfQzyiMFYyxcp6k37Fjus0Cj3JcDBllfhCLeFyjLE0vt4Teai4y/obGZ
G7xPjsuK3/5eldcLFVrzKic3jxr0nZHeFpUu1oIauZWLEg79/dwuFvaeuOEEb8yG
lgM=
-----END CERTIFICATE-----
